Certificate:
    Data:
        Version: 3 (0x2)
        Serial Number:
            71:17:e0:91:58:41:01:06:4a:05:79:97:86:20:9d:46
    Signature Algorithm: sha256WithRSAEncryption
        Issuer: CN=ExampleOvpn CA
        Validity
            Not Before: Jun  8 04:22:09 2022 GMT
            Not After : Mar 22 04:22:09 2296 GMT
        Subject: CN=ovpn-server
        Subject Public Key Info:
            Public Key Algorithm: rsaEncryption
                Public-Key: (2048 bit)
                Modulus:
                    00:dc:1c:b6:ea:a0:d5:bb:22:01:c3:7f:f4:d3:ef:
                    37:49:4b:85:6c:f7:60:5a:e7:8f:ca:17:43:54:67:
                    b6:15:f6:a1:00:2b:e1:fc:61:f0:1f:1b:1c:43:38:
                    3e:4c:99:52:fc:1c:09:60:5c:b5:a6:39:32:1e:c9:
                    c2:dc:1a:04:03:0d:a3:ea:e7:be:63:39:ce:4b:52:
                    4f:e6:3e:45:9d:75:e7:a9:0c:9b:64:01:90:62:b5:
                    a6:32:21:3f:5b:01:7e:ab:ae:9f:8e:dc:cc:c0:fc:
                    81:1d:c0:c8:7e:64:d2:a8:df:c3:37:b3:6e:1a:ce:
                    3f:1e:eb:07:00:95:58:94:a1:a6:f4:e6:ce:8f:14:
                    df:a0:c3:d4:fa:25:f4:54:2d:f0:e7:f7:03:b7:fb:
                    ba:39:84:69:41:ff:97:10:d5:cb:ef:aa:cf:0b:17:
                    9d:ba:6f:b1:f6:ae:0c:ea:07:08:13:9b:26:b1:a2:
                    bd:12:17:9f:01:1c:d4:b2:2e:80:71:cb:77:04:8c:
                    87:a9:62:88:10:01:a7:32:0a:9c:0d:cb:cb:82:34:
                    3d:8d:b4:79:89:f7:fd:95:0d:f9:82:59:bd:af:02:
                    60:de:b2:f2:a8:f7:92:a1:e7:c5:f5:a3:fb:0b:44:
                    29:ec:3c:76:25:77:be:a7:17:92:d2:8b:77:fb:e8:
                    f8:e3
                Exponent: 65537 (0x10001)
        X509v3 extensions:
            X509v3 Basic Constraints: 
                CA:FALSE
            X509v3 Subject Key Identifier: 
                4B:72:55:63:9E:9B:EA:18:46:E1:EA:8B:9C:C8:89:FF:D9:9A:E7:4C
            X509v3 Authority Key Identifier: 
                keyid:4F:5F:97:AE:D8:8E:60:21:C5:D6:C5:79:1C:E8:CE:96:55:18:44:D6
                DirName:/CN=ExampleOvpn CA
                serial:85:5B:C8:EC:87:26:B4:4B

            X509v3 Extended Key Usage: 
                TLS Web Server Authentication
            X509v3 Key Usage: 
                Digital Signature, Key Encipherment
            X509v3 Subject Alternative Name: 
                DNS:ovpn-server
    Signature Algorithm: sha256WithRSAEncryption
         be:32:f7:32:aa:9b:c1:fe:ed:4f:e9:64:81:b1:02:1b:de:9e:
         80:d1:92:5a:f2:ab:84:74:7d:e8:c9:1d:f9:e2:54:e0:de:6b:
         e9:69:c0:78:e7:c1:ad:28:c2:d3:4e:71:c3:87:8f:a3:ad:30:
         9d:86:a3:2c:9c:57:75:3f:dc:d6:e8:3d:84:ac:c7:56:79:5b:
         93:90:30:7e:23:83:7f:1c:34:d5:ab:02:03:15:6d:df:ed:60:
         3c:08:f2:66:e3:49:2f:2c:d4:74:0f:65:4a:09:4a:02:83:47:
         99:21:53:7d:a8:bb:0f:70:87:7a:d8:e4:a7:2a:a7:af:0d:bb:
         ba:f1:4c:32:34:b7:78:c9:64:07:c5:15:4a:d1:c5:38:f5:2e:
         36:1c:94:a9:b6:26:64:a4:0b:6c:41:75:8d:19:bc:63:a8:b3:
         eb:6b:07:a0:af:b7:31:8f:78:12:34:06:eb:23:34:de:fe:bb:
         ef:b8:b3:0b:32:80:dc:f9:9a:9b:7f:cb:35:7a:89:1e:1b:05:
         fe:63:63:77:fd:c9:4c:ac:51:7a:ca:e3:1c:66:40:49:40:a0:
         32:4c:d8:43:c4:07:31:c3:96:2d:37:ed:49:82:a6:cf:29:22:
         13:c4:a3:2f:10:21:03:24:ed:2f:a9:72:2e:45:fd:ab:f9:4e:
         06:7a:6c:b7
-----BEGIN CERTIFICATE-----
MIIDbjCCAlagAwIBAgIQcRfgkVhBAQZKBXmXhiCdRjANBgkqhkiG9w0BAQsFADAZ
MRcwFQYDVQQDDA5FeGFtcGxlT3ZwbiBDQTAgFw0yMjA2MDgwNDIyMDlaGA8yMjk2
MDMyMjA0MjIwOVowFjEUMBIGA1UEAwwLb3Zwbi1zZXJ2ZXIwggEiMA0GCSqGSIb3
DQEBAQUAA4IBDwAwggEKAoIBAQDcHLbqoNW7IgHDf/TT7zdJS4Vs92Ba54/KF0NU
Z7YV9qEAK+H8YfAfGxxDOD5MmVL8HAlgXLWmOTIeycLcGgQDDaPq575jOc5LUk/m
PkWddeepDJtkAZBitaYyIT9bAX6rrp+O3MzA/IEdwMh+ZNKo38M3s24azj8e6wcA
lViUoab05s6PFN+gw9T6JfRULfDn9wO3+7o5hGlB/5cQ1cvvqs8LF526b7H2rgzq
BwgTmyaxor0SF58BHNSyLoBxy3cEjIepYogQAacyCpwNy8uCND2NtHmJ9/2VDfmC
Wb2vAmDesvKo95Kh58X1o/sLRCnsPHYld76nF5LSi3f76PjjAgMBAAGjgbIwga8w
CQYDVR0TBAIwADAdBgNVHQ4EFgQUS3JVY56b6hhG4eqLnMiJ/9ma50wwSQYDVR0j
BEIwQIAUT1+XrtiOYCHF1sV5HOjOllUYRNahHaQbMBkxFzAVBgNVBAMMDkV4YW1w
bGVPdnBuIENBggkAhVvI7IcmtEswEwYDVR0lBAwwCgYIKwYBBQUHAwEwCwYDVR0P
BAQDAgWgMBYGA1UdEQQPMA2CC292cG4tc2VydmVyMA0GCSqGSIb3DQEBCwUAA4IB
AQC+MvcyqpvB/u1P6WSBsQIb3p6A0ZJa8quEdH3oyR354lTg3mvpacB458GtKMLT
TnHDh4+jrTCdhqMsnFd1P9zW6D2ErMdWeVuTkDB+I4N/HDTVqwIDFW3f7WA8CPJm
40kvLNR0D2VKCUoCg0eZIVN9qLsPcId62OSnKqevDbu68UwyNLd4yWQHxRVK0cU4
9S42HJSptiZkpAtsQXWNGbxjqLPrawegr7cxj3gSNAbrIzTe/rvvuLMLMoDc+Zqb
f8s1eokeGwX+Y2N3/clMrFF6yuMcZkBJQKAyTNhDxAcxw5YtN+1JgqbPKSITxKMv
ECEDJO0vqXIuRf2r+U4Gemy3
-----END CERTIFICATE-----
